; Function Attrs: mustprogress nounwind uwtable
define dso_local void @_ZN22cmNinjaTargetGeneratorD2Ev(ptr noundef nonnull align 8 dereferenceable(240) %0) unnamed_addr #4 align 2 personality ptr @__gxx_personality_v0 {
  store ptr getelementptr inbounds ({ [8 x ptr] }, ptr @_ZTV22cmNinjaTargetGenerator, i64 0, i32 0, i64 2), ptr %0, align 8
  %2 = getelementptr inbounds i8, ptr %0, i64 192
  %3 = getelementptr inbounds i8, ptr %0, i64 208
  %4 = load ptr, ptr %3, align 8
  invoke void @_ZNSt8_Rb_treeINSt7__cxx1112basic_stringIcSt11char_traitsIcESaIcEEESt4pairIKS5_N22cmNinjaTargetGenerator8ByConfigEESt10_Select1stISA_ESt4lessIS5_ESaISA_EE8_M_eraseEPSt13_Rb_tree_nodeISA_E(ptr noundef nonnull align 8 dereferenceable(48) %2, ptr noundef %4)
          to label %_ZNSt3mapINSt7__cxx1112basic_stringIcSt11char_traitsIcESaIcEEEN22cmNinjaTargetGenerator8ByConfigESt4lessIS5_ESaISt4pairIKS5_S7_EEED2Ev.exit unwind label %5

5:                                                ; preds = %1
  %6 = landingpad { ptr, i32 }
          catch ptr null
  %7 = extractvalue { ptr, i32 } %6, 0
  tail call void @__clang_call_terminate(ptr %7) #25
  unreachable

_ZNSt3mapINSt7__cxx1112basic_stringIcSt11char_traitsIcESaIcEEEN22cmNinjaTargetGenerator8ByConfigESt4lessIS5_ESaISt4pairIKS5_S7_EEED2Ev.exit: ; preds = %1
  %8 = getelementptr inbounds i8, ptr %0, i64 128
  %9 = getelementptr inbounds i8, ptr %0, i64 144
  %10 = load ptr, ptr %9, align 8
  invoke void @_ZNSt8_Rb_treeINSt7__cxx1112basic_stringIcSt11char_traitsIcESaIcEEES5_St9_IdentityIS5_ESt4lessIS5_ESaIS5_EE8_M_eraseEPSt13_Rb_tree_nodeIS5_E(ptr noundef nonnull align 8 dereferenceable(48) %8, ptr noundef %10)
          to label %_ZNSt3setINSt7__cxx1112basic_stringIcSt11char_traitsIcESaIcEEESt4lessIS5_ESaIS5_EED2Ev.exit unwind label %11

11:                                               ; preds = %_ZNSt3mapINSt7__cxx1112basic_stringIcSt11char_traitsIcESaIcEEEN22cmNinjaTargetGenerator8ByConfigESt4lessIS5_ESaISt4pairIKS5_S7_EEED2Ev.exit
  %12 = landingpad { ptr, i32 }
          catch ptr null
  %13 = extractvalue { ptr, i32 } %12, 0
  tail call void @__clang_call_terminate(ptr %13) #25
  unreachable

_ZNSt3setINSt7__cxx1112basic_stringIcSt11char_traitsIcESaIcEEESt4lessIS5_ESaIS5_EED2Ev.exit: ; preds = %_ZNSt3mapINSt7__cxx1112basic_stringIcSt11char_traitsIcESaIcEEEN22cmNinjaTargetGenerator8ByConfigESt4lessIS5_ESaISt4pairIKS5_S7_EEED2Ev.exit
  %14 = getelementptr inbounds i8, ptr %0, i64 120
  %15 = load ptr, ptr %14, align 8
  %.not.i = icmp eq ptr %15, null
  br i1 %.not.i, label %_ZNSt10unique_ptrI20cmOSXBundleGeneratorSt14default_deleteIS0_EED2Ev.exit, label %_ZNKSt14default_deleteI20cmOSXBundleGeneratorEclEPS0_.exit.i

_ZNKSt14default_deleteI20cmOSXBundleGeneratorEclEPS0_.exit.i: ; preds = %_ZNSt3setINSt7__cxx1112basic_stringIcSt11char_traitsIcESaIcEEESt4lessIS5_ESaIS5_EED2Ev.exit
  tail call void @_ZdlPv(ptr noundef nonnull %15) #23
  br label %_ZNSt10unique_ptrI20cmOSXBundleGeneratorSt14default_deleteIS0_EED2Ev.exit

_ZNSt10unique_ptrI20cmOSXBundleGeneratorSt14default_deleteIS0_EED2Ev.exit: ; preds = %_ZNSt3setINSt7__cxx1112basic_stringIcSt11char_traitsIcESaIcEEESt4lessIS5_ESaIS5_EED2Ev.exit, %_ZNKSt14default_deleteI20cmOSXBundleGeneratorEclEPS0_.exit.i
  store ptr null, ptr %14, align 8
  tail call void @_ZN23cmCommonTargetGeneratorD2Ev(ptr noundef nonnull align 8 dereferenceable(120) %0) #24
  ret void
}